; ModuleID = '7/566.c'
source_filename = "7/566.c"
target datalayout = "e-m:e-p270:32:32-p271:32:32-p272:64:64-i64:64-f80:128-n8:16:32:64-S128"
target triple = "x86_64-pc-linux-gnu"

; Function Attrs: noinline nounwind uwtable
define dso_local void @main() #0 {
  %1 = alloca [100 x i8], align 16
  %2 = alloca [10 x i8], align 1
  %3 = alloca [10 x i8], align 1
  %4 = alloca i8, align 1
  %5 = alloca i8, align 1
  %6 = alloca i8*, align 8
  %7 = alloca i32, align 4
  %8 = getelementptr inbounds [100 x i8], [100 x i8]* %1, i64 0, i64 0
  %9 = call i32 (i8*, ...) bitcast (i32 (...)* @gets to i32 (i8*, ...)*)(i8* %8)
  %10 = getelementptr inbounds [10 x i8], [10 x i8]* %2, i64 0, i64 0
  %11 = call i32 (i8*, ...) bitcast (i32 (...)* @gets to i32 (i8*, ...)*)(i8* %10)
  %12 = getelementptr inbounds [10 x i8], [10 x i8]* %3, i64 0, i64 0
  %13 = call i32 (i8*, ...) bitcast (i32 (...)* @gets to i32 (i8*, ...)*)(i8* %12)
  %14 = getelementptr inbounds [10 x i8], [10 x i8]* %3, i64 0, i64 0
  %15 = call i64 @strlen(i8* %14) #4
  %16 = trunc i64 %15 to i8
  store i8 %16, i8* %4, align 1
  %17 = getelementptr inbounds [100 x i8], [100 x i8]* %1, i64 0, i64 0
  %18 = getelementptr inbounds [10 x i8], [10 x i8]* %2, i64 0, i64 0
  %19 = call i8* @strstr(i8* %17, i8* %18) #4
  store i8* %19, i8** %6, align 8
  %20 = load i8*, i8** %6, align 8
  %21 = icmp ne i8* %20, null
  br i1 %21, label %22, label %30

22:                                               ; preds = %0
  %23 = load i8*, i8** %6, align 8
  %24 = getelementptr inbounds [10 x i8], [10 x i8]* %3, i64 0, i64 0
  %25 = load i8, i8* %4, align 1
  %26 = sext i8 %25 to i64
  %27 = call i8* @strncpy(i8* %23, i8* %24, i64 %26) #5
  %28 = getelementptr inbounds [100 x i8], [100 x i8]* %1, i64 0, i64 0
  %29 = call i32 @puts(i8* %28)
  br label %37

30:                                               ; preds = %0
  %31 = load i8*, i8** %6, align 8
  %32 = icmp eq i8* %31, null
  br i1 %32, label %33, label %36

33:                                               ; preds = %30
  %34 = getelementptr inbounds [100 x i8], [100 x i8]* %1, i64 0, i64 0
  %35 = call i32 @puts(i8* %34)
  br label %36

36:                                               ; preds = %33, %30
  br label %37

37:                                               ; preds = %36, %22
  ret void
}

declare dso_local i32 @gets(...) #1

; Function Attrs: nounwind readonly
declare dso_local i64 @strlen(i8*) #2

; Function Attrs: nounwind readonly
declare dso_local i8* @strstr(i8*, i8*) #2

; Function Attrs: nounwind
declare dso_local i8* @strncpy(i8*, i8*, i64) #3

declare dso_local i32 @puts(i8*) #1


!llvm.module.flags = !{!0}
!llvm.ident = !{!1}

!0 = !{i32 1, !"wchar_size", i32 4}
!1 = !{!"clang version 10.0.0-4ubuntu1 "}
